; Function Attrs: mustprogress nofree norecurse nosync nounwind willreturn memory(argmem: write) uwtable
define void @_ZN3nix17SourceExprCommand22getCompleteInstallableEv(ptr dead_on_unwind noalias nocapture writable writeonly sret(%"class.std::function.215") align 8 %0, ptr noundef nonnull align 8 dereferenceable(440) %1) local_unnamed_addr #8 align 2 personality ptr @__gxx_personality_v0 {
  %3 = getelementptr inbounds i8, ptr %0, i64 16
  %4 = getelementptr inbounds i8, ptr %0, i64 24
  %5 = getelementptr inbounds i8, ptr %0, i64 8
  store i64 0, ptr %5, align 8
  %6 = ptrtoint ptr %1 to i64
  store i64 %6, ptr %0, align 8
  store ptr @"_ZNSt17_Function_handlerIFvRN3nix14AddCompletionsEmSt17basic_string_viewIcSt11char_traitsIcEEEZNS0_17SourceExprCommand22getCompleteInstallableEvE3$_0E9_M_invokeERKSt9_Any_dataS2_OmOS6_", ptr %4, align 8
  store ptr @"_ZNSt17_Function_handlerIFvRN3nix14AddCompletionsEmSt17basic_string_viewIcSt11char_traitsIcEEEZNS0_17SourceExprCommand22getCompleteInstallableEvE3$_0E10_M_managerERSt9_Any_dataRKSB_St18_Manager_operation", ptr %3, align 8
  ret void
}